_aby_check.c.o:
aby_check_aby
aby_check_one_key
aby_check_one_rb_key
_db_doprnt_
_db_enabled_
_db_enter_
_db_pargs_
_db_return_
_dbug_on_
_GLOBAL_OFFSET_TABLE_
ha_key_cmp
hpa_find_block
hpa_mask
hpa_rb_make_key
hpa_rec_hashnr
log_this
printf
__stack_chk_fail
strlen
tree_search_edge
tree_search_next


_db_enter_
_db_return_
_GLOBAL_OFFSET_TABLE_
hpa_rectest
log_this
memcmp
_my_thread_var
__stack_chk_fail


_GLOBAL_OFFSET_TABLE_
hpa_find_block
hpa_free_level
hpa_get_new_block
my_free
my_malloc


aby_clear
aby_clear_keys
aby_disable_indexes
aby_enable_indexes
aby_indexes_are_disabled
_db_enter_
_db_return_
delete_tree
_GLOBAL_OFFSET_TABLE_
hpa_clear
hpa_clear_keys
hpa_free_level
log_this
__stack_chk_fail


aby_check_aby
aby_close
aby_open_list
_db_enter_
_db_return_
_GLOBAL_OFFSET_TABLE_
hpa_close
hpa_free
inline_mysql_mutex_lock
inline_mysql_mutex_unlock
list_delete
log_this
my_free
_my_thread_var
PSI_server
safe_mutex_lock
safe_mutex_unlock
__stack_chk_fail
THR_LOCK_heap


aby_create
aby_delete_table
aby_drop_table
aby_share_list
aby_try_free
_db_doprnt_
_db_enabled_
_db_enter_
_db_pargs_
_db_return_
_dbug_on_
_GLOBAL_OFFSET_TABLE_
ha_key_cmp
hpa_clear
hpa_delete_key
hpa_find_named_aby
hpa_free
hpa_key_mutex_HPA_SHARE_intern_lock
hpa_rb_delete_key
hpa_rb_key_length
hpa_rb_null_key_length
hpa_rb_var_key_length
hpa_rb_write_key
hpa_write_key
init_block
init_tree
inline_mysql_mutex_destroy
inline_mysql_mutex_init
inline_mysql_mutex_lock
inline_mysql_mutex_unlock
keys_compare
list_add
list_delete
log_this
memcpy
memset
my_default_record_cache_size
my_fast_mutexattr
my_free
my_malloc
my_strdup
_my_thread_var
PSI_server
safe_mutex_destroy
safe_mutex_init
safe_mutex_lock
safe_mutex_unlock
__stack_chk_fail
thr_lock_delete
THR_LOCK_heap
thr_lock_init
time


aby_clear
aby_close
aby_create
aby_delete
aby_delete_table
aby_disable_indexes
aby_enable_indexes
aby_extra
aby_indexes_are_disabled
aby_info
aby_open
aby_open_from_share
aby_open_from_share_and_register
aby_position
aby_release_share
aby_rename
aby_reset
aby_rfirst
aby_rkey
aby_rlast
aby_rnext
aby_rprev
aby_rrnd
aby_scan
aby_scan_init
aby_storage_engine
aby_update
aby_write
alloc_root
__assert_fail
builtin_aby_plugin
builtin_aby_plugin_interface_version
builtin_aby_sizeof_struct_st_plugin
__cxa_call_unexpected
_db_doprnt_
_db_enabled_
_db_pargs_
_dbug_on_
DW.ref.__gxx_personality_v0
_GLOBAL_OFFSET_TABLE_
__gxx_personality_v0
hpa_close
hpa_panic
hpa_rb_records_in_range
init_aby_psi_keys
log_this
memcmp
memset
my_charset_bin
my_free
my_malloc
_my_thread_var
pthread_getspecific
__stack_chk_fail
THR_THD
_Unwind_Resume
_Z12_current_thdv
_Z15get_new_handlerP11TABLE_SHAREP11st_mem_rootP10handlerton
_Z8aby_initPv
_Z9aby_panicP10handlerton17ha_panic_function
_ZL11ha_aby_exts
_ZL14GET_SIZE_ERROR
_ZL15POINT_DATA_SIZE
_ZL15WKB_HEADER_SIZE
_ZL18aby_create_handlerP10handlertonP11TABLE_SHAREP11st_mem_root
_ZL19MAX_GNO_TEXT_LENGTH
_ZL19sp_data_access_name
_ZL20SIZEOF_STORED_DOUBLE
_ZL25MAX_THREAD_ID_TEXT_LENGTH
_ZL27aby_prepare_hpa_create_infoP5TABLEbP18st_aby_create_info
_ZL28MDL_LOCKS_CACHE_SIZE_DEFAULT
_ZL31MYSQL_START_TRANS_OPT_READ_ONLY
_ZL32MYSQL_START_TRANS_OPT_READ_WRITE
_ZL33MDL_LOCKS_HASH_PARTITIONS_DEFAULT
_ZL40MYSQL_START_TRANS_OPT_WITH_CONS_SNAPSHOT
_ZL7MAX_GNO
_ZL9SRID_SIZE
_ZN13ha_statisticsC1Ev
_ZN13ha_statisticsC2Ev
_ZN13ha_statisticsC5Ev
_ZN17Discrete_interval7replaceEyyy
_ZN17Discrete_intervalC1Ev
_ZN17Discrete_intervalC2Ev
_ZN17Discrete_intervalC5Ev
_ZN6BitmapILj64EE4initEv
_ZN6BitmapILj64EE7set_bitEj
_ZN6BitmapILj64EE9clear_allEv
_ZN6BitmapILj64EEC1Ev
_ZN6BitmapILj64EEC2Ev
_ZN6BitmapILj64EEC5Ev
_ZN6ha_aby10delete_rowEPKh
_ZN6ha_aby10drop_tableEPKc
_ZN6ha_aby10index_lastEPh
_ZN6ha_aby10index_nextEPh
_ZN6ha_aby10index_prevEPh
_ZN6ha_aby10index_typeEj
_ZN6ha_aby10store_lockEP3THDPP16st_thr_lock_data13thr_lock_type
_ZN6ha_aby10update_rowEPKhPh
_ZN6ha_aby11index_firstEPh
_ZN6ha_aby12delete_tableEPKc
_ZN6ha_aby12rename_tableEPKcS1_
_ZN6ha_aby13external_lockEP3THDi
_ZN6ha_aby14enable_indexesEj
_ZN6ha_aby14index_read_mapEPhPKhm16ha_rkey_function
_ZN6ha_aby15delete_all_rowsEv
_ZN6ha_aby15disable_indexesEj
_ZN6ha_aby16records_in_rangeEjP12st_key_rangeS1_
_ZN6ha_aby16update_key_statsEv
_ZN6ha_aby18get_auto_incrementEyyyPyS0_
_ZN6ha_aby18index_read_idx_mapEPhjPKhm16ha_rkey_function
_ZN6ha_aby18update_create_infoEP24st_ha_create_information
_ZN6ha_aby19index_read_last_mapEPhPKhm
_ZN6ha_aby20indexes_are_disabledEv
_ZN6ha_aby20reset_auto_incrementEy
_ZN6ha_aby21set_keys_for_scanningEv
_ZN6ha_aby24keys_to_use_for_scanningEv
_ZN6ha_aby26check_if_incompatible_dataEP24st_ha_create_informationj
_ZN6ha_aby4infoEj
_ZN6ha_aby4openEPKcij
_ZN6ha_aby5cloneEPKcP11st_mem_root
_ZN6ha_aby5closeEv
_ZN6ha_aby5extraE17ha_extra_function
_ZN6ha_aby5resetEv
_ZN6ha_aby6createEPKcP5TABLEP24st_ha_create_information
_ZN6ha_aby7cmp_refEPKhS1_
_ZN6ha_aby7rnd_posEPhS0_
_ZN6ha_aby8positionEPKh
_ZN6ha_aby8rnd_initEb
_ZN6ha_aby8rnd_nextEPh
_ZN6ha_aby8truncateEv
_ZN6ha_aby9read_timeEjjy
_ZN6ha_aby9scan_timeEv
_ZN6ha_aby9write_rowEPh
_ZN6ha_abyC1EP10handlertonP11TABLE_SHARE
_ZN6ha_abyC2EP10handlertonP11TABLE_SHARE
_ZN6ha_abyD0Ev
_ZN6ha_abyD1Ev
_ZN6ha_abyD2Ev
_ZN6ha_abyD5Ev
_ZN7handler10ha_rnd_posEPhS0_
_ZN7handler10index_initEjb
_ZN7handler10index_readEPhPKhj16ha_rkey_function
_ZN7handler10rebind_psiEv
_ZN7handler10start_stmtEP3THD13thr_lock_type
_ZN7handler10unbind_psiEv
_ZN7handler10unlock_rowEv
_ZN7handler11ft_init_extEjjP6String
_ZN7handler11print_errorEii
_ZN7handler12get_no_partsEPKcPj
_ZN7handler12preload_keysEP3THDP15st_ha_check_opt
_ZN7handler13idx_cond_pushEjP4Item
_ZN7handler13set_part_infoEP14partition_infob
_ZN7handler14is_fatal_errorEij
_ZN7handler14read_first_rowEPhj
_ZN7handler15bulk_update_rowEPKhPhPj
_ZN7handler15drop_partitionsEPKc
_ZN7handler15end_bulk_deleteEv
_ZN7handler15end_bulk_insertEv
_ZN7handler15end_bulk_updateEv
_ZN7handler15index_next_sameEPhPKhj
_ZN7handler15index_read_lastEPhPKhj
_ZN7handler15read_range_nextEv
_ZN7handler16change_table_ptrEP5TABLEP11TABLE_SHARE
_ZN7handler16check_and_repairEP3THD
_ZN7handler16end_read_removalEv
_ZN7handler16exec_bulk_updateEPj
_ZN7handler16read_range_firstEPK12st_key_rangeS2_bb
_ZN7handler16restart_rnd_nextEPhS0_
_ZN7handler16set_ha_share_refEPP13Handler_share
_ZN7handler16table_cache_typeEv
_ZN7handler17alter_table_flagsEj
                                                                   _ZN7handler17change_partitionsEP24st_ha_create_informationPKcPyS4_PKhm
_ZN7handler17check_for_upgradeEP15st_ha_check_opt
_ZN7handler17get_error_messageEiP6String
_ZN7handler17index_next_pushedEPh
_ZN7handler17index_read_pushedEPhPKhm
_ZN7handler17rename_partitionsEPKc
_ZN7handler17rnd_pos_by_recordEPh
_ZN7handler17start_bulk_deleteEv
_ZN7handler17start_bulk_insertEy
_ZN7handler17start_bulk_updateEv
_ZN7handler18append_create_infoEP6String
_ZN7handler18assign_to_keycacheEP3THDP15st_ha_check_opt
_ZN7handler18can_switch_enginesEv
_ZN7handler18start_read_removalEv
_ZN7handler19get_foreign_dup_keyEPcjS0_j
_ZN7handler19inplace_alter_tableEP5TABLEP18Alter_inplace_info
_ZN7handler19set_auto_partitionsEP14partition_info
                                                                   _ZN7handler20create_handler_filesEPKcS1_iP24st_ha_create_information
                                                                   _ZN7handler20get_foreign_key_listEP3THDP4ListI19st_foreign_key_infoE
_ZN7handler20index_only_read_timeEjd
_ZN7handler20notify_table_changedEv
_ZN7handler20update_table_commentEPKc
_ZN7handler21column_bitmaps_signalEv
_ZN7handler21multi_range_read_infoEjjjPjS0_P13Cost_estimate
                                                                   _ZN7handler21multi_range_read_initEP15st_range_seq_ifPvjjP17st_handler_buffer
_ZN7handler21multi_range_read_nextEPPc
_ZN7handler21update_auto_incrementEv
_ZN7handler22cancel_pushed_idx_condEv
_ZN7handler22release_auto_incrementEv
_ZN7handler22use_hidden_primary_keyEv
_ZN7handler24calculate_key_hash_valueEPP5Field
_ZN7handler24primary_key_is_clusteredEv
_ZN7handler24try_semi_consistent_readEb
_ZN7handler24was_semi_consistent_readEv
_ZN7handler25estimate_rows_upper_boundEv
_ZN7handler25get_default_no_partitionsEP24st_ha_create_information
_ZN7handler25referenced_by_foreign_keyEv
                                                                   _ZN7handler26commit_inplace_alter_tableEP5TABLEP18Alter_inplace_infob
_ZN7handler26get_dynamic_partition_infoEP15PARTITION_STATSj
_ZN7handler26register_query_cache_tableEP3THDPcjPPFcS1_S2_jPyES3_
_ZN7handler27get_foreign_key_create_infoEv
                                                                   _ZN7handler27get_parent_foreign_key_listEP3THDP4ListI19st_foreign_key_infoE
                                                                   _ZN7handler27multi_range_read_info_constEjP15st_range_seq_ifPvjPjS3_P13Cost_estimate
                                                                   _ZN7handler27prepare_inplace_alter_tableEP5TABLEP18Alter_inplace_info
_ZN7handler28discard_or_import_tablespaceEc
_ZN7handler28free_foreign_key_create_infoEPc
_ZN7handler29init_table_handle_for_HANDLEREv
_ZN7handler31is_fk_defined_on_table_or_indexEj
                                                                   _ZN7handler32check_if_supported_inplace_alterEP5TABLEP18Alter_inplace_info
_ZN7handler5checkEP3THDP15st_ha_check_opt
_ZN7handler6repairEP3THDP15st_ha_check_opt
_ZN7handler7analyzeEP3THDP15st_ha_check_opt
_ZN7handler7ft_initEv
_ZN7handler7ft_readEPh
_ZN7handler7ha_openEP5TABLEPKcii
_ZN7handler7recordsEv
_ZN7handler7rnd_endEv
_ZN7handler8cond_popEv
_ZN7handler8optimizeEP3THDP15st_ha_check_opt
_ZN7handler8rnd_sameEPhj
_ZN7handler9cond_pushEPK4Item
_ZN7handler9extra_optE17ha_extra_functionm
_ZN7handler9index_endEv
_ZN7handlerC1EP10handlertonP11TABLE_SHARE
_ZN7handlerC2EP10handlertonP11TABLE_SHARE
_ZN7handlerC5EP10handlertonP11TABLE_SHARE
_ZN7handlerD0Ev
_ZN7handlerD1Ev
_ZN7handlerD2Ev
_ZN7handlerD5Ev
_ZN9Sql_allocC1Ev
_ZN9Sql_allocC2Ev
_ZN9Sql_allocC5Ev
_ZN9Sql_allocD1Ev
_ZN9Sql_allocD2Ev
_ZN9Sql_allocD5Ev
_ZN9Sql_allocdlEPvm
_ZN9Sql_allocdlEPvP11st_mem_root
_ZN9Sql_allocnwEmP11st_mem_root
_ZNK11TABLE_SHARE7db_typeEv
_ZNK5Field11null_offsetEPKh
_ZNK5Field11null_offsetEv
_ZNK5Field15real_maybe_nullEv
_ZNK6ha_aby10table_typeEv
_ZNK6ha_aby11index_flagsEjjb
_ZNK6ha_aby11table_flagsEv
_ZNK6ha_aby12get_row_typeEv
_ZNK6ha_aby18max_supported_keysEv
_ZNK6ha_aby29max_supported_key_part_lengthEv
_ZNK6ha_aby7bas_extEv
_ZNK7handler10is_crashedEv
_ZNK7handler10lock_countEv
_ZNK7handler11auto_repairEv
_ZNK7handler14ha_table_flagsEv
_ZNK7handler14low_byte_firstEv
_ZNK7handler17min_record_lengthEj
_ZNK7handler19root_of_pushed_joinEv
_ZNK7handler20extra_rec_buf_lengthEv
_ZNK7handler21parent_of_pushed_joinEv
_ZNK7handler22get_memory_buffer_sizeEv
_ZNK7handler22ha_statistic_incrementEM17system_status_vary
_ZNK7handler22number_of_pushed_joinsEv
_ZNK7handler23max_supported_key_partsEv
_ZNK7handler24max_supported_key_lengthEv
_ZNK7handler27max_supported_record_lengthEv
_ZNK7handler8checksumEv
_ZTI6ha_aby
_ZTI7handler
_ZTS6ha_aby
_ZTV6ha_aby
_ZTV7handler
_ZTVN10__cxxabiv120__si_class_type_infoE
                                                                   _ZZL27aby_prepare_hpa_create_infoP5TABLEbP18st_aby_create_infoE19__PRETTY_FUNCTION__
_ZZN6ha_aby10index_lastEPhE19__PRETTY_FUNCTION__
_ZZN6ha_aby10index_nextEPhE19__PRETTY_FUNCTION__
_ZZN6ha_aby10index_prevEPhE19__PRETTY_FUNCTION__
_ZZN6ha_aby11index_firstEPhE19__PRETTY_FUNCTION__
                                                                   _ZZN6ha_aby14index_read_mapEPhPKhm16ha_rkey_functionE19__PRETTY_FUNCTION__
                                                                   _ZZN6ha_aby16records_in_rangeEjP12st_key_rangeS1_E19__PRETTY_FUNCTION__
_ZZN6ha_aby19index_read_last_mapEPhPKhmE19__PRETTY_FUNCTION__
                                                                   _ZZN6ha_aby6createEPKcP5TABLEP24st_ha_create_informationE19__PRETTY_FUNCTION__
_ZZN7handler15bulk_update_rowEPKhPhPjE19__PRETTY_FUNCTION__
_ZZN7handler15end_bulk_deleteEvE19__PRETTY_FUNCTION__
_ZZN7handler16end_read_removalEvE19__PRETTY_FUNCTION__
_ZZN7handler16exec_bulk_updateEPjE19__PRETTY_FUNCTION__
                                                                   _ZZN7handler16set_ha_share_refEPP13Handler_shareE19__PRETTY_FUNCTION__
_ZZN7handler17rnd_pos_by_recordEPhE19__PRETTY_FUNCTION__
_ZZN7handler18start_read_removalEvE19__PRETTY_FUNCTION__
_ZZN7handler19get_foreign_dup_keyEPcjS0_jE19__PRETTY_FUNCTION__
                                                                   _ZZN7handler24calculate_key_hash_valueEPP5FieldE19__PRETTY_FUNCTION__
_ZZN7handler6repairEP3THDP15st_ha_check_optE19__PRETTY_FUNCTION__
_ZZN7handlerD4EvE19__PRETTY_FUNCTION__


aby_delete
_db_doprnt_
_db_enabled_
_db_enter_
_db_pargs_
_db_return_
_dbug_on_
_GLOBAL_OFFSET_TABLE_
hpa_delete_key
hpa_find_block
hpa_mask
hpa_movelink
hpa_rb_delete_key
hpa_rb_make_key
hpa_rec_hashnr
hpa_rec_key_cmp
hpa_rectest
log_this
_my_thread_var
__stack_chk_fail
tree_delete


aby_extra
aby_extra_keyflag
aby_reset
_db_enter_
_db_return_
_GLOBAL_OFFSET_TABLE_
log_this
__stack_chk_fail


aby_update_auto_increment
__assert_fail
_db_doprnt_
_db_enabled_
_db_enter_
_db_pargs_
_db_return_
_dbug_on_
_GLOBAL_OFFSET_TABLE_
hpa_find_block
hpa_hashnr
hpa_if_null_in_key
hpa_key_cmp
hpa_make_key
hpa_mask
hpa_movelink
hpa_rb_key_length
hpa_rb_make_key
hpa_rb_null_key_length
hpa_rb_pack_key
hpa_rb_records_in_range
hpa_rb_var_key_length
hpa_rec_hashnr
hpa_rec_key_cmp
hpa_search
hpa_search_next
__isnan
__isnanf
log_this
memcmp
memcpy
memset
_my_thread_var
__PRETTY_FUNCTION__.11259
__stack_chk_fail
tree_record_pos


aby_info
aby_position
_db_enter_
_db_return_
_GLOBAL_OFFSET_TABLE_
log_this
__stack_chk_fail


aby_open
aby_open_from_share
aby_open_from_share_and_register
aby_open_list
aby_release_share
aby_share_list
_db_doprnt_
_db_enabled_
_db_enter_
_db_pargs_
_db_return_
_dbug_on_
_GLOBAL_OFFSET_TABLE_
hpa_find_named_aby
hpa_free
inline_mysql_mutex_lock
inline_mysql_mutex_unlock
list_add
log_this
my_malloc
_my_thread_var
PSI_server
safe_mutex_lock
safe_mutex_unlock
__stack_chk_fail
strcmp
thr_lock_data_init
THR_LOCK_heap


aby_open_list
aby_share_list
_db_enter_
_db_return_
_GLOBAL_OFFSET_TABLE_
hpa_close
hpa_free
hpa_panic
inline_mysql_mutex_lock
inline_mysql_mutex_unlock
log_this
PSI_server
safe_mutex_lock
safe_mutex_unlock
__stack_chk_fail
THR_LOCK_heap


aby_rename
_db_enter_
_db_return_
_GLOBAL_OFFSET_TABLE_
hpa_find_named_aby
inline_mysql_mutex_lock
inline_mysql_mutex_unlock
log_this
my_free
my_strdup
_my_thread_var
PSI_server
safe_mutex_lock
safe_mutex_unlock
__stack_chk_fail
THR_LOCK_heap


aby_rfirst
__assert_fail
_db_enter_
_db_return_
_GLOBAL_OFFSET_TABLE_
log_this
memcpy
_my_thread_var
__PRETTY_FUNCTION__.10994
__stack_chk_fail
tree_search_edge


aby_find
aby_rkey
_db_doprnt_
_db_enabled_
_db_enter_
_db_pargs_
_db_return_
_dbug_on_
_GLOBAL_OFFSET_TABLE_
hpa_rb_pack_key
hpa_search
log_this
memcpy
_my_thread_var
__stack_chk_fail
tree_search_key


aby_rlast
aby_rprev
_db_enter_
_db_return_
_GLOBAL_OFFSET_TABLE_
log_this
memcpy
_my_thread_var
__stack_chk_fail
tree_search_edge


aby_rnext
_db_enter_
_db_return_
_GLOBAL_OFFSET_TABLE_
hpa_search
hpa_search_next
log_this
memcpy
_my_thread_var
__stack_chk_fail
tree_search_edge
tree_search_key
tree_search_next


aby_rprev
_db_enter_
_db_return_
_GLOBAL_OFFSET_TABLE_
hpa_search
log_this
memcpy
_my_thread_var
__stack_chk_fail
tree_search_key
tree_search_next


aby_rrnd
_db_doprnt_
_db_enabled_
_db_enter_
_db_pargs_
_db_return_
_dbug_on_
_GLOBAL_OFFSET_TABLE_
log_this
memcpy
_my_thread_var
__stack_chk_fail


aby_rsame
_db_enter_
_db_return_
_GLOBAL_OFFSET_TABLE_
hpa_make_key
hpa_search
log_this
memcpy
_my_thread_var
__stack_chk_fail


aby_scan
aby_scan_init
_db_doprnt_
_db_enabled_
_db_enter_
_db_pargs_
_db_return_
_dbug_on_
_GLOBAL_OFFSET_TABLE_
hpa_find_block
log_this
memcpy
_my_thread_var
__stack_chk_fail


aby_open_list
aby_share_list
all_aby_mutexes
_GLOBAL_OFFSET_TABLE_
hpa_key_mutex_HPA_SHARE_intern_lock
init_aby_psi_keys
inline_mysql_mutex_register
PSI_server


aby_update
aby_update_auto_increment
_db_enter_
_db_return_
_GLOBAL_OFFSET_TABLE_
hpa_rec_key_cmp
hpa_rectest
log_this
memcpy
_my_thread_var
__stack_chk_fail


aby_update_auto_increment
aby_write
_db_doprnt_
_db_enabled_
_db_enter_
_db_pargs_
_db_return_
_dbug_on_
_GLOBAL_OFFSET_TABLE_
hpa_find_block
hpa_find_free_hash
hpa_get_new_block
hpa_if_null_in_key
hpa_mask
hpa_movelink
hpa_rb_make_key
hpa_rb_write_key
hpa_rec_hashnr
hpa_rec_key_cmp
hpa_write_key
log_this
memcpy
_my_thread_var
next_free_record_pos
__stack_chk_fail
tree_insert
